target datalayout = "e-m:e-p270:32:32-p271:32:32-p272:64:64-i64:64-i128:128-f80:128-n8:16:32:64-S128"
target triple = "x86_64-pc-linux-gnu"

@.str.229 = private unnamed_addr constant [5 x i8] c"%08x\00", align 1

; Function Attrs: mustprogress nounwind uwtable
define internal void @_ZL18get_header_versionILi256EEvRAT__c(ptr noundef nonnull align 1 dereferenceable(256) %0) #1 {
  %2 = alloca ptr, align 8
  %3 = alloca ptr, align 8
  %4 = alloca i32, align 4
  %5 = alloca i32, align 4
  store ptr %0, ptr %2, align 8
  %6 = call noundef ptr @_ZN19Abstract_VM_Version23internal_vm_info_stringEv()
  store ptr %6, ptr %3, align 8
  %7 = load ptr, ptr %3, align 8
  %8 = call i64 @strlen(ptr noundef %7) #12
  %9 = trunc i64 %8 to i32
  store i32 %9, ptr %4, align 4
  %10 = load ptr, ptr %2, align 8
  %11 = getelementptr inbounds [256 x i8], ptr %10, i64 0, i64 0
  call void @llvm.memset.p0.i64(ptr align 1 %11, i8 0, i64 256, i1 false)
  %12 = load i32, ptr %4, align 4
  %13 = icmp slt i32 %12, 255
  br i1 %13, label %14, label %19

14:                                               ; preds = %1
  %15 = load ptr, ptr %2, align 8
  %16 = getelementptr inbounds [256 x i8], ptr %15, i64 0, i64 0
  %17 = load ptr, ptr %3, align 8
  %18 = call ptr @strcpy(ptr noundef %16, ptr noundef %17) #13
  br label %33

19:                                               ; preds = %1
  %20 = load ptr, ptr %3, align 8
  %21 = load i32, ptr %4, align 4
  %22 = call noundef i32 @_ZN10AltHashing14halfsiphash_32EmPKvi(i64 noundef 8191, ptr noundef %20, i32 noundef %21)
  store i32 %22, ptr %5, align 4
  %23 = load ptr, ptr %2, align 8
  %24 = getelementptr inbounds [256 x i8], ptr %23, i64 0, i64 0
  %25 = load ptr, ptr %3, align 8
  %26 = call ptr @strncpy(ptr noundef %24, ptr noundef %25, i64 noundef 247) #13
  %27 = load ptr, ptr %2, align 8
  %28 = getelementptr inbounds [256 x i8], ptr %27, i64 0, i64 247
  %29 = load i32, ptr %5, align 4
  %30 = call noundef i32 (ptr, i64, ptr, ...) @_ZN2os16snprintf_checkedEPcmPKcz(ptr noundef %28, i64 noundef 9, ptr noundef @.str.229, i32 noundef %29)
  %31 = load ptr, ptr %2, align 8
  %32 = getelementptr inbounds [256 x i8], ptr %31, i64 0, i64 255
  store i8 0, ptr %32, align 1
  br label %33

33:                                               ; preds = %19, %14
  ret void
}