; Function Attrs: mustprogress nounwind uwtable
define internal fastcc void @_ZL18get_header_versionILi256EEvRAT__c(ptr noundef nonnull align 1 dereferenceable(256) %0) unnamed_addr #0 {
  %2 = tail call noundef ptr @_ZN19Abstract_VM_Version23internal_vm_info_stringEv() #25
  %3 = tail call i64 @strlen(ptr noundef nonnull dereferenceable(1) %2) #26
  %4 = trunc i64 %3 to i32
  tail call void @llvm.memset.p0.i64(ptr noundef nonnull align 1 dereferenceable(256) %0, i8 0, i64 256, i1 false)
  %5 = icmp slt i32 %4, 255
  br i1 %5, label %6, label %8

6:                                                ; preds = %1
  %7 = tail call ptr @strcpy(ptr noundef nonnull dereferenceable(1) %0, ptr noundef nonnull dereferenceable(1) %2) #25
  br label %14

8:                                                ; preds = %1
  %9 = tail call noundef i32 @_ZN10AltHashing14halfsiphash_32EmPKvi(i64 noundef 8191, ptr noundef %2, i32 noundef %4) #25
  %10 = tail call ptr @strncpy(ptr noundef nonnull dereferenceable(1) %0, ptr noundef nonnull dereferenceable(1) %2, i64 noundef 247) #25
  %11 = getelementptr inbounds i8, ptr %0, i64 247
  %12 = tail call noundef i32 (ptr, i64, ptr, ...) @_ZN2os16snprintf_checkedEPcmPKcz(ptr noundef nonnull %11, i64 noundef 9, ptr noundef nonnull @.str.229, i32 noundef %9) #25
  %13 = getelementptr inbounds i8, ptr %0, i64 255
  store i8 0, ptr %13, align 1
  br label %14

14:                                               ; preds = %8, %6
  ret void
}